target datalayout = "e-m:e-p270:32:32-p271:32:32-p272:64:64-i64:64-i128:128-f80:128-n8:16:32:64-S128"
target triple = "x86_64-pc-linux-gnu"

%struct._MAD = type { i8, i8, i8, i8, i16, i8, i8, i64, i16, i16, i32 }

@hf_opa_VLArbitrationTable = internal global i32 0, align 4
@hf_opa_VLArbitrationTable_reserved = internal global i32 0, align 4
@hf_opa_VLArbitrationTable_VL = internal global i32 0, align 4
@hf_opa_VLArbitrationTable_Weight = internal global i32 0, align 4
@hf_opa_VLArbitrationTable_Matrix = internal global i32 0, align 4
@.str.1227 = private unnamed_addr constant [9 x i8] c"Reserved\00", align 1
@ett_vlarbitrationtable = internal global i32 0, align 4
@ett_vlarbitrationtable_port = internal global i32 0, align 4
@.str.2329 = private unnamed_addr constant [6 x i8] c"%3u: \00", align 1
@.str.2331 = private unnamed_addr constant [6 x i8] c"     \00", align 1
@.str.2333 = private unnamed_addr constant [35 x i8] c"%s VL Arbitration Table on Port %u\00", align 1

; Function Attrs: null_pointer_is_valid sspstrong uwtable
define internal i32 @parse_VLArbitrationTable(ptr noundef %0, ptr noundef %1, ptr noundef %2, ptr noundef %3) #0 {
  %5 = alloca i32, align 4
  %6 = alloca ptr, align 8
  %7 = alloca ptr, align 8
  %8 = alloca ptr, align 8
  %9 = alloca ptr, align 8
  %10 = alloca i32, align 4
  %11 = alloca ptr, align 8
  %12 = alloca ptr, align 8
  %13 = alloca ptr, align 8
  %14 = alloca ptr, align 8
  %15 = alloca ptr, align 8
  %16 = alloca ptr, align 8
  %17 = alloca i32, align 4
  %18 = alloca i32, align 4
  %19 = alloca i32, align 4
  %20 = alloca i32, align 4
  %21 = alloca i32, align 4
  %22 = alloca ptr, align 8
  %23 = alloca i32, align 4
  store ptr %0, ptr %6, align 8
  store ptr %1, ptr %7, align 8
  store ptr %2, ptr %8, align 8
  store ptr %3, ptr %9, align 8
  call void @llvm.lifetime.start.p0(i64 4, ptr %10) #7
  %24 = load ptr, ptr %8, align 8
  %25 = load i32, ptr %24, align 4
  store i32 %25, ptr %10, align 4
  call void @llvm.lifetime.start.p0(i64 8, ptr %11) #7
  call void @llvm.lifetime.start.p0(i64 8, ptr %12) #7
  call void @llvm.lifetime.start.p0(i64 8, ptr %13) #7
  call void @llvm.lifetime.start.p0(i64 8, ptr %14) #7
  call void @llvm.lifetime.start.p0(i64 8, ptr %15) #7
  call void @llvm.lifetime.start.p0(i64 8, ptr %16) #7
  call void @llvm.lifetime.start.p0(i64 4, ptr %17) #7
  call void @llvm.lifetime.start.p0(i64 4, ptr %18) #7
  call void @llvm.lifetime.start.p0(i64 4, ptr %19) #7
  call void @llvm.lifetime.start.p0(i64 4, ptr %20) #7
  call void @llvm.lifetime.start.p0(i64 4, ptr %21) #7
  call void @llvm.lifetime.start.p0(i64 8, ptr %22) #7
  %26 = load ptr, ptr %6, align 8
  %27 = icmp ne ptr %26, null
  br i1 %27, label %28, label %40

28:                                               ; preds = %4
  %29 = load ptr, ptr %9, align 8
  %30 = getelementptr inbounds nuw %struct._MAD, ptr %29, i32 0, i32 3
  %31 = load i8, ptr %30, align 1
  %32 = zext i8 %31 to i32
  %33 = icmp eq i32 %32, 1
  br i1 %33, label %40, label %34

34:                                               ; preds = %28
  %35 = load ptr, ptr %9, align 8
  %36 = getelementptr inbounds nuw %struct._MAD, ptr %35, i32 0, i32 3
  %37 = load i8, ptr %36, align 1
  %38 = zext i8 %37 to i32
  %39 = icmp eq i32 %38, 18
  br i1 %39, label %40, label %43

40:                                               ; preds = %34, %28, %4
  %41 = load ptr, ptr %8, align 8
  %42 = load i32, ptr %41, align 4
  store i32 %42, ptr %5, align 4
  store i32 1, ptr %23, align 4
  br label %170

43:                                               ; preds = %34
  %44 = load ptr, ptr %9, align 8
  %45 = getelementptr inbounds nuw %struct._MAD, ptr %44, i32 0, i32 1
  %46 = load i8, ptr %45, align 1
  %47 = zext i8 %46 to i32
  %48 = icmp eq i32 %47, 3
  br i1 %48, label %49, label %60

49:                                               ; preds = %43
  store i32 1, ptr %20, align 4
  %50 = load ptr, ptr %7, align 8
  %51 = load i32, ptr %10, align 4
  %52 = sub i32 %51, 3
  %53 = call zeroext i8 @tvb_get_uint8(ptr noundef %50, i32 noundef %52)
  %54 = zext i8 %53 to i32
  store i32 %54, ptr %19, align 4
  %55 = load ptr, ptr %7, align 8
  %56 = load i32, ptr %10, align 4
  %57 = sub i32 %56, 4
  %58 = call zeroext i8 @tvb_get_uint8(ptr noundef %55, i32 noundef %57)
  %59 = zext i8 %58 to i32
  store i32 %59, ptr %21, align 4
  br label %75

60:                                               ; preds = %43
  %61 = load ptr, ptr %9, align 8
  %62 = getelementptr inbounds nuw %struct._MAD, ptr %61, i32 0, i32 10
  %63 = load i32, ptr %62, align 4
  %64 = and i32 %63, -16777216
  %65 = lshr i32 %64, 24
  store i32 %65, ptr %20, align 4
  %66 = load ptr, ptr %9, align 8
  %67 = getelementptr inbounds nuw %struct._MAD, ptr %66, i32 0, i32 10
  %68 = load i32, ptr %67, align 4
  %69 = and i32 %68, 16711680
  %70 = lshr i32 %69, 16
  store i32 %70, ptr %19, align 4
  %71 = load ptr, ptr %9, align 8
  %72 = getelementptr inbounds nuw %struct._MAD, ptr %71, i32 0, i32 10
  %73 = load i32, ptr %72, align 4
  %74 = and i32 %73, 255
  store i32 %74, ptr %21, align 4
  br label %75

75:                                               ; preds = %60, %49
  %76 = load i32, ptr %19, align 4
  %77 = call ptr @val_to_str_const(i32 noundef %76, ptr noundef @MADAttrModSectionVLarb_short, ptr noundef @.str.1227)
  store ptr %77, ptr %22, align 8
  %78 = load ptr, ptr %6, align 8
  %79 = load i32, ptr @hf_opa_VLArbitrationTable, align 4
  %80 = load ptr, ptr %7, align 8
  %81 = load i32, ptr %10, align 4
  %82 = load i32, ptr %20, align 4
  %83 = mul i32 256, %82
  %84 = call ptr @proto_tree_add_item(ptr noundef %78, i32 noundef %79, ptr noundef %80, i32 noundef %81, i32 noundef %83, i32 noundef 0)
  store ptr %84, ptr %11, align 8
  %85 = load ptr, ptr %11, align 8
  %86 = load i32, ptr @ett_vlarbitrationtable, align 4
  %87 = call ptr @proto_item_add_subtree(ptr noundef %85, i32 noundef %86)
  store ptr %87, ptr %12, align 8
  %88 = load i32, ptr %21, align 4
  store i32 %88, ptr %18, align 4
  br label %89

89:                                               ; preds = %165, %75
  %90 = load i32, ptr %18, align 4
  %91 = load i32, ptr %21, align 4
  %92 = load i32, ptr %20, align 4
  %93 = add i32 %91, %92
  %94 = icmp ult i32 %90, %93
  br i1 %94, label %95, label %168

95:                                               ; preds = %89
  %96 = load ptr, ptr %12, align 8
  %97 = load ptr, ptr %7, align 8
  %98 = load i32, ptr %10, align 4
  %99 = load i32, ptr @ett_vlarbitrationtable_port, align 4
  %100 = load ptr, ptr %22, align 8
  %101 = load i32, ptr %18, align 4
  %102 = call ptr (ptr, ptr, i32, i32, i32, ptr, ptr, ...) @proto_tree_add_subtree_format(ptr noundef %96, ptr noundef %97, i32 noundef %98, i32 noundef 256, i32 noundef %99, ptr noundef null, ptr noundef @.str.2333, ptr noundef %100, i32 noundef %101)
  store ptr %102, ptr %13, align 8
  %103 = load i32, ptr %19, align 4
  %104 = icmp ult i32 %103, 3
  br i1 %104, label %105, label %137

105:                                              ; preds = %95
  store i32 0, ptr %17, align 4
  br label %106

106:                                              ; preds = %133, %105
  %107 = load i32, ptr %17, align 4
  %108 = icmp ult i32 %107, 128
  br i1 %108, label %109, label %136

109:                                              ; preds = %106
  %110 = load ptr, ptr %13, align 8
  %111 = load i32, ptr @hf_opa_VLArbitrationTable_reserved, align 4
  %112 = load ptr, ptr %7, align 8
  %113 = load i32, ptr %10, align 4
  %114 = call ptr @proto_tree_add_item(ptr noundef %110, i32 noundef %111, ptr noundef %112, i32 noundef %113, i32 noundef 1, i32 noundef 0)
  store ptr %114, ptr %14, align 8
  %115 = load ptr, ptr %14, align 8
  %116 = load i32, ptr %17, align 4
  call void (ptr, ptr, ...) @proto_item_prepend_text(ptr noundef %115, ptr noundef @.str.2329, i32 noundef %116)
  %117 = load ptr, ptr %13, align 8
  %118 = load i32, ptr @hf_opa_VLArbitrationTable_VL, align 4
  %119 = load ptr, ptr %7, align 8
  %120 = load i32, ptr %10, align 4
  %121 = call ptr @proto_tree_add_item(ptr noundef %117, i32 noundef %118, ptr noundef %119, i32 noundef %120, i32 noundef 1, i32 noundef 0)
  store ptr %121, ptr %15, align 8
  %122 = load ptr, ptr %15, align 8
  call void (ptr, ptr, ...) @proto_item_prepend_text(ptr noundef %122, ptr noundef @.str.2331)
  %123 = load i32, ptr %10, align 4
  %124 = add i32 %123, 1
  store i32 %124, ptr %10, align 4
  %125 = load ptr, ptr %13, align 8
  %126 = load i32, ptr @hf_opa_VLArbitrationTable_Weight, align 4
  %127 = load ptr, ptr %7, align 8
  %128 = load i32, ptr %10, align 4
  %129 = call ptr @proto_tree_add_item(ptr noundef %125, i32 noundef %126, ptr noundef %127, i32 noundef %128, i32 noundef 1, i32 noundef 0)
  store ptr %129, ptr %16, align 8
  %130 = load i32, ptr %10, align 4
  %131 = add i32 %130, 1
  store i32 %131, ptr %10, align 4
  %132 = load ptr, ptr %16, align 8
  call void (ptr, ptr, ...) @proto_item_prepend_text(ptr noundef %132, ptr noundef @.str.2331)
  br label %133

133:                                              ; preds = %109
  %134 = load i32, ptr %17, align 4
  %135 = add i32 %134, 1
  store i32 %135, ptr %17, align 4
  br label %106, !llvm.loop !18

136:                                              ; preds = %106
  br label %164

137:                                              ; preds = %95
  %138 = load i32, ptr %19, align 4
  %139 = icmp eq i32 %138, 3
  br i1 %139, label %140, label %160

140:                                              ; preds = %137
  store i32 0, ptr %17, align 4
  br label %141

141:                                              ; preds = %154, %140
  %142 = load i32, ptr %17, align 4
  %143 = icmp ult i32 %142, 32
  br i1 %143, label %144, label %157

144:                                              ; preds = %141
  %145 = load ptr, ptr %13, align 8
  %146 = load i32, ptr @hf_opa_VLArbitrationTable_Matrix, align 4
  %147 = load ptr, ptr %7, align 8
  %148 = load i32, ptr %10, align 4
  %149 = call ptr @proto_tree_add_item(ptr noundef %145, i32 noundef %146, ptr noundef %147, i32 noundef %148, i32 noundef 4, i32 noundef 0)
  store ptr %149, ptr %15, align 8
  %150 = load i32, ptr %10, align 4
  %151 = add i32 %150, 4
  store i32 %151, ptr %10, align 4
  %152 = load ptr, ptr %15, align 8
  %153 = load i32, ptr %17, align 4
  call void (ptr, ptr, ...) @proto_item_prepend_text(ptr noundef %152, ptr noundef @.str.2329, i32 noundef %153)
  br label %154

154:                                              ; preds = %144
  %155 = load i32, ptr %17, align 4
  %156 = add i32 %155, 1
  store i32 %156, ptr %17, align 4
  br label %141, !llvm.loop !19

157:                                              ; preds = %141
  %158 = load i32, ptr %10, align 4
  %159 = add i32 %158, 128
  store i32 %159, ptr %10, align 4
  br label %163

160:                                              ; preds = %137
  %161 = load i32, ptr %10, align 4
  %162 = add i32 %161, 256
  store i32 %162, ptr %10, align 4
  br label %163

163:                                              ; preds = %160, %157
  br label %164

164:                                              ; preds = %163, %136
  br label %165

165:                                              ; preds = %164
  %166 = load i32, ptr %18, align 4
  %167 = add i32 %166, 1
  store i32 %167, ptr %18, align 4
  br label %89, !llvm.loop !20

168:                                              ; preds = %89
  %169 = load i32, ptr %10, align 4
  store i32 %169, ptr %5, align 4
  store i32 1, ptr %23, align 4
  br label %170

170:                                              ; preds = %168, %40
  call void @llvm.lifetime.end.p0(i64 8, ptr %22) #7
  call void @llvm.lifetime.end.p0(i64 4, ptr %21) #7
  call void @llvm.lifetime.end.p0(i64 4, ptr %20) #7
  call void @llvm.lifetime.end.p0(i64 4, ptr %19) #7
  call void @llvm.lifetime.end.p0(i64 4, ptr %18) #7
  call void @llvm.lifetime.end.p0(i64 4, ptr %17) #7
  call void @llvm.lifetime.end.p0(i64 8, ptr %16) #7
  call void @llvm.lifetime.end.p0(i64 8, ptr %15) #7
  call void @llvm.lifetime.end.p0(i64 8, ptr %14) #7
  call void @llvm.lifetime.end.p0(i64 8, ptr %13) #7
  call void @llvm.lifetime.end.p0(i64 8, ptr %12) #7
  call void @llvm.lifetime.end.p0(i64 8, ptr %11) #7
  call void @llvm.lifetime.end.p0(i64 4, ptr %10) #7
  %171 = load i32, ptr %5, align 4
  ret i32 %171
}