; Function Attrs: null_pointer_is_valid sspstrong uwtable
define internal fastcc i32 @parse_VLArbitrationTable(ptr noundef %0, ptr noundef %1, i32 %.0.val, ptr noundef readonly captures(none) %2) unnamed_addr #0 {
  %.not = icmp eq ptr %0, null
  br i1 %.not, label %.loopexit2, label %4

4:                                                ; preds = %3
  %5 = getelementptr inbounds nuw i8, ptr %2, i64 3
  %6 = load i8, ptr %5, align 1
  switch i8 %6, label %7 [
    i8 1, label %.loopexit2
    i8 18, label %.loopexit2
  ]

7:                                                ; preds = %4
  %8 = getelementptr inbounds nuw i8, ptr %2, i64 1
  %9 = load i8, ptr %8, align 1
  %10 = icmp eq i8 %9, 3
  br i1 %10, label %11, label %18

11:                                               ; preds = %7
  %12 = add i32 %.0.val, -3
  %13 = tail call zeroext i8 @tvb_get_uint8(ptr noundef %1, i32 noundef %12)
  %14 = zext i8 %13 to i32
  %15 = add i32 %.0.val, -4
  %16 = tail call zeroext i8 @tvb_get_uint8(ptr noundef %1, i32 noundef %15)
  %17 = zext i8 %16 to i32
  br label %25

18:                                               ; preds = %7
  %19 = getelementptr inbounds nuw i8, ptr %2, i64 20
  %20 = load i32, ptr %19, align 4
  %21 = lshr i32 %20, 24
  %22 = lshr i32 %20, 16
  %23 = and i32 %22, 255
  %24 = and i32 %20, 255
  br label %25

25:                                               ; preds = %18, %11
  %.061 = phi i32 [ %14, %11 ], [ %23, %18 ]
  %.060 = phi i32 [ 1, %11 ], [ %21, %18 ]
  %.059 = phi i32 [ %17, %11 ], [ %24, %18 ]
  %26 = tail call ptr @val_to_str_const(i32 noundef %.061, ptr noundef nonnull @MADAttrModSectionVLarb_short, ptr noundef nonnull @.str.1227)
  %27 = load i32, ptr @hf_opa_VLArbitrationTable, align 4
  %28 = shl nuw nsw i32 %.060, 8
  %29 = tail call ptr @proto_tree_add_item(ptr noundef nonnull %0, i32 noundef %27, ptr noundef %1, i32 noundef %.0.val, i32 noundef %28, i32 noundef 0)
  %30 = load i32, ptr @ett_vlarbitrationtable, align 4
  %31 = tail call ptr @proto_item_add_subtree(ptr noundef %29, i32 noundef %30)
  %32 = add nuw nsw i32 %.059, %.060
  %.not14 = icmp eq i32 %.060, 0
  br i1 %.not14, label %.loopexit2, label %.lr.ph

.lr.ph:                                           ; preds = %25
  %33 = icmp samesign ult i32 %.061, 3
  br i1 %33, label %.preheader.us, label %.lr.ph.split

.preheader.us:                                    ; preds = %.lr.ph, %.loopexit.us
  %.0628.us = phi i32 [ %46, %.loopexit.us ], [ %.059, %.lr.ph ]
  %.0647.us = phi i32 [ %44, %.loopexit.us ], [ %.0.val, %.lr.ph ]
  %34 = load i32, ptr @ett_vlarbitrationtable_port, align 4
  %35 = tail call ptr (ptr, ptr, i32, i32, i32, ptr, ptr, ...) @proto_tree_add_subtree_format(ptr noundef %31, ptr noundef %1, i32 noundef %.0647.us, i32 noundef 256, i32 noundef %34, ptr noundef null, ptr noundef nonnull @.str.2333, ptr noundef %26, i32 noundef %.0628.us)
  br label %36

36:                                               ; preds = %.preheader.us, %36
  %.0636.us = phi i32 [ 0, %.preheader.us ], [ %45, %36 ]
  %.1655.us = phi i32 [ %.0647.us, %.preheader.us ], [ %44, %36 ]
  %37 = load i32, ptr @hf_opa_VLArbitrationTable_reserved, align 4
  %38 = tail call ptr @proto_tree_add_item(ptr noundef %35, i32 noundef %37, ptr noundef %1, i32 noundef %.1655.us, i32 noundef 1, i32 noundef 0)
  tail call void (ptr, ptr, ...) @proto_item_prepend_text(ptr noundef %38, ptr noundef nonnull @.str.2329, i32 noundef %.0636.us)
  %39 = load i32, ptr @hf_opa_VLArbitrationTable_VL, align 4
  %40 = tail call ptr @proto_tree_add_item(ptr noundef %35, i32 noundef %39, ptr noundef %1, i32 noundef %.1655.us, i32 noundef 1, i32 noundef 0)
  tail call void (ptr, ptr, ...) @proto_item_prepend_text(ptr noundef %40, ptr noundef nonnull @.str.2331)
  %41 = add i32 %.1655.us, 1
  %42 = load i32, ptr @hf_opa_VLArbitrationTable_Weight, align 4
  %43 = tail call ptr @proto_tree_add_item(ptr noundef %35, i32 noundef %42, ptr noundef %1, i32 noundef %41, i32 noundef 1, i32 noundef 0)
  %44 = add i32 %.1655.us, 2
  tail call void (ptr, ptr, ...) @proto_item_prepend_text(ptr noundef %43, ptr noundef nonnull @.str.2331)
  %45 = add nuw nsw i32 %.0636.us, 1
  %exitcond19.not = icmp eq i32 %45, 128
  br i1 %exitcond19.not, label %.loopexit.us, label %36, !llvm.loop !27

.loopexit.us:                                     ; preds = %36
  %46 = add nuw nsw i32 %.0628.us, 1
  %47 = icmp samesign ult i32 %46, %32
  br i1 %47, label %.preheader.us, label %.loopexit2, !llvm.loop !28

.lr.ph.split:                                     ; preds = %.lr.ph
  %48 = icmp eq i32 %.061, 3
  br i1 %48, label %.preheader1.us, label %.lr.ph.split.split

.preheader1.us:                                   ; preds = %.lr.ph.split, %51
  %.0628.us9 = phi i32 [ %53, %51 ], [ %.059, %.lr.ph.split ]
  %.0647.us10 = phi i32 [ %52, %51 ], [ %.0.val, %.lr.ph.split ]
  %49 = load i32, ptr @ett_vlarbitrationtable_port, align 4
  %50 = tail call ptr (ptr, ptr, i32, i32, i32, ptr, ptr, ...) @proto_tree_add_subtree_format(ptr noundef %31, ptr noundef %1, i32 noundef %.0647.us10, i32 noundef 256, i32 noundef %49, ptr noundef null, ptr noundef nonnull @.str.2333, ptr noundef %26, i32 noundef %.0628.us9)
  br label %55

51:                                               ; preds = %55
  %52 = add i32 %.23.us, 132
  %53 = add nuw nsw i32 %.0628.us9, 1
  %54 = icmp samesign ult i32 %53, %32
  br i1 %54, label %.preheader1.us, label %.loopexit2, !llvm.loop !28

55:                                               ; preds = %.preheader1.us, %55
  %.14.us = phi i32 [ 0, %.preheader1.us ], [ %59, %55 ]
  %.23.us = phi i32 [ %.0647.us10, %.preheader1.us ], [ %58, %55 ]
  %56 = load i32, ptr @hf_opa_VLArbitrationTable_Matrix, align 4
  %57 = tail call ptr @proto_tree_add_item(ptr noundef %50, i32 noundef %56, ptr noundef %1, i32 noundef %.23.us, i32 noundef 4, i32 noundef 0)
  %58 = add i32 %.23.us, 4
  tail call void (ptr, ptr, ...) @proto_item_prepend_text(ptr noundef %57, ptr noundef nonnull @.str.2329, i32 noundef %.14.us)
  %59 = add nuw nsw i32 %.14.us, 1
  %exitcond.not = icmp eq i32 %59, 32
  br i1 %exitcond.not, label %51, label %55, !llvm.loop !29

.lr.ph.split.split:                               ; preds = %.lr.ph.split, %.lr.ph.split.split
  %.0628 = phi i32 [ %63, %.lr.ph.split.split ], [ %.059, %.lr.ph.split ]
  %.0647 = phi i32 [ %62, %.lr.ph.split.split ], [ %.0.val, %.lr.ph.split ]
  %60 = load i32, ptr @ett_vlarbitrationtable_port, align 4
  %61 = tail call ptr (ptr, ptr, i32, i32, i32, ptr, ptr, ...) @proto_tree_add_subtree_format(ptr noundef %31, ptr noundef %1, i32 noundef %.0647, i32 noundef 256, i32 noundef %60, ptr noundef null, ptr noundef nonnull @.str.2333, ptr noundef %26, i32 noundef %.0628)
  %62 = add i32 %.0647, 256
  %63 = add nuw nsw i32 %.0628, 1
  %64 = icmp samesign ult i32 %63, %32
  br i1 %64, label %.lr.ph.split.split, label %.loopexit2, !llvm.loop !28

.loopexit2:                                       ; preds = %.lr.ph.split.split, %51, %.loopexit.us, %25, %3, %4, %4
  %.0 = phi i32 [ %.0.val, %4 ], [ %.0.val, %4 ], [ %.0.val, %3 ], [ %.0.val, %25 ], [ %44, %.loopexit.us ], [ %52, %51 ], [ %62, %.lr.ph.split.split ]
  ret i32 %.0
}